target datalayout = "e-m:e-p270:32:32-p271:32:32-p272:64:64-i64:64-i128:128-f80:128-n8:16:32:64-S128"
target triple = "x86_64-pc-linux-gnu"

; Function Attrs: nounwind uwtable
define internal i32 @parse_7zip_uint64(ptr noundef %0, ptr noundef %1) #0 {
  %3 = alloca i32, align 4
  %4 = alloca ptr, align 8
  %5 = alloca ptr, align 8
  %6 = alloca ptr, align 8
  %7 = alloca i8, align 1
  %8 = alloca i8, align 1
  %9 = alloca i32, align 4
  %10 = alloca i32, align 4
  store ptr %0, ptr %4, align 8, !tbaa !9
  store ptr %1, ptr %5, align 8, !tbaa !106
  call void @llvm.lifetime.start.p0(i64 8, ptr %6) #12
  call void @llvm.lifetime.start.p0(i64 1, ptr %7) #12
  call void @llvm.lifetime.start.p0(i64 1, ptr %8) #12
  call void @llvm.lifetime.start.p0(i64 4, ptr %9) #12
  %11 = load ptr, ptr %4, align 8, !tbaa !9
  %12 = call ptr @header_bytes(ptr noundef %11, i64 noundef 1)
  store ptr %12, ptr %6, align 8, !tbaa !43
  %13 = icmp eq ptr %12, null
  br i1 %13, label %14, label %15

14:                                               ; preds = %2
  store i32 -1, ptr %3, align 4
  store i32 1, ptr %10, align 4
  br label %68

15:                                               ; preds = %2
  %16 = load ptr, ptr %6, align 8, !tbaa !43
  %17 = load i8, ptr %16, align 1, !tbaa !44
  store i8 %17, ptr %7, align 1, !tbaa !44
  store i8 -128, ptr %8, align 1, !tbaa !44
  %18 = load ptr, ptr %5, align 8, !tbaa !106
  store i64 0, ptr %18, align 8, !tbaa !45
  store i32 0, ptr %9, align 4, !tbaa !11
  br label %19

19:                                               ; preds = %64, %15
  %20 = load i32, ptr %9, align 4, !tbaa !11
  %21 = icmp slt i32 %20, 8
  br i1 %21, label %22, label %67

22:                                               ; preds = %19
  %23 = load i8, ptr %7, align 1, !tbaa !44
  %24 = zext i8 %23 to i32
  %25 = load i8, ptr %8, align 1, !tbaa !44
  %26 = zext i8 %25 to i32
  %27 = and i32 %24, %26
  %28 = icmp ne i32 %27, 0
  br i1 %28, label %29, label %49

29:                                               ; preds = %22
  %30 = load ptr, ptr %4, align 8, !tbaa !9
  %31 = call ptr @header_bytes(ptr noundef %30, i64 noundef 1)
  store ptr %31, ptr %6, align 8, !tbaa !43
  %32 = icmp eq ptr %31, null
  br i1 %32, label %33, label %34

33:                                               ; preds = %29
  store i32 -1, ptr %3, align 4
  store i32 1, ptr %10, align 4
  br label %68

34:                                               ; preds = %29
  %35 = load ptr, ptr %6, align 8, !tbaa !43
  %36 = load i8, ptr %35, align 1, !tbaa !44
  %37 = zext i8 %36 to i64
  %38 = load i32, ptr %9, align 4, !tbaa !11
  %39 = mul nsw i32 8, %38
  %40 = zext i32 %39 to i64
  %41 = shl i64 %37, %40
  %42 = load ptr, ptr %5, align 8, !tbaa !106
  %43 = load i64, ptr %42, align 8, !tbaa !45
  %44 = or i64 %43, %41
  store i64 %44, ptr %42, align 8, !tbaa !45
  %45 = load i8, ptr %8, align 1, !tbaa !44
  %46 = zext i8 %45 to i32
  %47 = ashr i32 %46, 1
  %48 = trunc i32 %47 to i8
  store i8 %48, ptr %8, align 1, !tbaa !44
  br label %64

49:                                               ; preds = %22
  %50 = load i8, ptr %7, align 1, !tbaa !44
  %51 = zext i8 %50 to i32
  %52 = load i8, ptr %8, align 1, !tbaa !44
  %53 = zext i8 %52 to i32
  %54 = sub nsw i32 %53, 1
  %55 = and i32 %51, %54
  %56 = sext i32 %55 to i64
  %57 = load i32, ptr %9, align 4, !tbaa !11
  %58 = mul nsw i32 8, %57
  %59 = zext i32 %58 to i64
  %60 = shl i64 %56, %59
  %61 = load ptr, ptr %5, align 8, !tbaa !106
  %62 = load i64, ptr %61, align 8, !tbaa !45
  %63 = add i64 %62, %60
  store i64 %63, ptr %61, align 8, !tbaa !45
  br label %67

64:                                               ; preds = %34
  %65 = load i32, ptr %9, align 4, !tbaa !11
  %66 = add nsw i32 %65, 1
  store i32 %66, ptr %9, align 4, !tbaa !11
  br label %19, !llvm.loop !278

67:                                               ; preds = %49, %19
  store i32 0, ptr %3, align 4
  store i32 1, ptr %10, align 4
  br label %68

68:                                               ; preds = %67, %33, %14
  call void @llvm.lifetime.end.p0(i64 4, ptr %9) #12
  call void @llvm.lifetime.end.p0(i64 1, ptr %8) #12
  call void @llvm.lifetime.end.p0(i64 1, ptr %7) #12
  call void @llvm.lifetime.end.p0(i64 8, ptr %6) #12
  %69 = load i32, ptr %3, align 4
  ret i32 %69
}