; Function Attrs: nounwind uwtable
define internal fastcc range(i32 -1, 1) i32 @parse_7zip_uint64(ptr noundef %0, ptr noundef captures(none) %1) unnamed_addr #0 {
  %3 = tail call fastcc ptr @header_bytes(ptr noundef %0, i64 noundef 1)
  %4 = icmp eq ptr %3, null
  br i1 %4, label %.loopexit, label %5

5:                                                ; preds = %2
  %6 = load i8, ptr %3, align 1, !tbaa !37
  store i64 0, ptr %1, align 8, !tbaa !38
  %7 = zext i8 %6 to i32
  %.not33 = icmp sgt i8 %6, -1
  br i1 %.not33, label %23, label %.lr.ph

8:                                                ; preds = %13
  %9 = lshr i32 %.0162235, 1
  %10 = and i32 %9, %7
  %.not = icmp eq i32 %10, 0
  br i1 %.not, label %._crit_edge, label %.lr.ph, !llvm.loop !173

.lr.ph:                                           ; preds = %5, %8
  %.0162235 = phi i32 [ %9, %8 ], [ 128, %5 ]
  %indvars.iv34 = phi i64 [ %indvars.iv.next, %8 ], [ 0, %5 ]
  %11 = tail call fastcc ptr @header_bytes(ptr noundef %0, i64 noundef 1)
  %12 = icmp eq ptr %11, null
  br i1 %12, label %.loopexit, label %13

13:                                               ; preds = %.lr.ph
  %14 = load i8, ptr %11, align 1, !tbaa !37
  %15 = zext i8 %14 to i64
  %16 = shl nuw nsw i64 %indvars.iv34, 3
  %17 = shl nuw i64 %15, %16
  %18 = load i64, ptr %1, align 8, !tbaa !38
  %19 = or i64 %17, %18
  store i64 %19, ptr %1, align 8, !tbaa !38
  %indvars.iv.next = add nuw nsw i64 %indvars.iv34, 1
  %exitcond.not = icmp eq i64 %indvars.iv.next, 8
  br i1 %exitcond.not, label %.loopexit, label %8, !llvm.loop !173

._crit_edge:                                      ; preds = %8
  %20 = add nuw nsw i32 %9, 255
  %21 = shl i64 %indvars.iv.next, 3
  %22 = and i64 %21, 4294967288
  br label %23

23:                                               ; preds = %._crit_edge, %5
  %.lcssa = phi i64 [ %19, %._crit_edge ], [ 0, %5 ]
  %indvars.iv.lcssa = phi i64 [ %22, %._crit_edge ], [ 0, %5 ]
  %.01622.lcssa = phi i32 [ %20, %._crit_edge ], [ 383, %5 ]
  %24 = and i32 %.01622.lcssa, %7
  %25 = zext nneg i32 %24 to i64
  %26 = shl nuw i64 %25, %indvars.iv.lcssa
  %27 = add i64 %.lcssa, %26
  store i64 %27, ptr %1, align 8, !tbaa !38
  br label %.loopexit

.loopexit:                                        ; preds = %13, %.lr.ph, %23, %2
  %.017 = phi i32 [ -1, %2 ], [ 0, %23 ], [ 0, %13 ], [ -1, %.lr.ph ]
  ret i32 %.017
}